; Function Attrs: mustprogress uwtable
define void @_ZN13MainStatusBar16popGenericStatusENS_13StatusContextE(ptr noundef nonnull align 8 dereferenceable(512) %0, i32 noundef %1) local_unnamed_addr #0 align 2 personality ptr @__gxx_personality_v0 {
  %3 = alloca %class.QString, align 8
  %4 = icmp eq i32 %1, 0
  %spec.select.v = select i1 %4, i64 320, i64 56
  %spec.select = getelementptr inbounds i8, ptr %0, i64 %spec.select.v
  call void @llvm.memset.p0.i64(ptr noundef nonnull align 8 dereferenceable(24) %3, i8 0, i64 24, i1 false)
  invoke void @_ZN7QWidget10setToolTipERK7QString(ptr noundef nonnull align 8 dereferenceable(40) %spec.select, ptr noundef nonnull align 8 dereferenceable(24) %3)
          to label %5 unwind label %10

5:                                                ; preds = %2
  %6 = load ptr, ptr %3, align 8
  %.not.i.i.i = icmp eq ptr %6, null
  br i1 %.not.i.i.i, label %_ZN7QStringD2Ev.exit, label %_ZN17QArrayDataPointerIDsE5derefEv.exit.i.i

_ZN17QArrayDataPointerIDsE5derefEv.exit.i.i:      ; preds = %5
  %7 = atomicrmw sub ptr %6, i32 1 seq_cst, align 4
  %.not.i.i = icmp eq i32 %7, 1
  br i1 %.not.i.i, label %8, label %_ZN7QStringD2Ev.exit

8:                                                ; preds = %_ZN17QArrayDataPointerIDsE5derefEv.exit.i.i
  %9 = load ptr, ptr %3, align 8
  call void @_ZN10QArrayData10deallocateEPS_xx(ptr noundef %9, i64 noundef 2, i64 noundef 8) #12
  br label %_ZN7QStringD2Ev.exit

_ZN7QStringD2Ev.exit:                             ; preds = %5, %_ZN17QArrayDataPointerIDsE5derefEv.exit.i.i, %8
  call void @_ZN10LabelStack7popTextEi(ptr noundef nonnull align 8 dereferenceable(112) %spec.select, i32 noundef %1)
  ret void

10:                                               ; preds = %2
  %11 = landingpad { ptr, i32 }
          cleanup
  %12 = load ptr, ptr %3, align 8
  %.not.i.i.i6 = icmp eq ptr %12, null
  br i1 %.not.i.i.i6, label %_ZN7QStringD2Ev.exit9, label %_ZN17QArrayDataPointerIDsE5derefEv.exit.i.i7

_ZN17QArrayDataPointerIDsE5derefEv.exit.i.i7:     ; preds = %10
  %13 = atomicrmw sub ptr %12, i32 1 seq_cst, align 4
  %.not.i.i8 = icmp eq i32 %13, 1
  br i1 %.not.i.i8, label %14, label %_ZN7QStringD2Ev.exit9

14:                                               ; preds = %_ZN17QArrayDataPointerIDsE5derefEv.exit.i.i7
  %15 = load ptr, ptr %3, align 8
  call void @_ZN10QArrayData10deallocateEPS_xx(ptr noundef %15, i64 noundef 2, i64 noundef 8) #12
  br label %_ZN7QStringD2Ev.exit9

_ZN7QStringD2Ev.exit9:                            ; preds = %10, %_ZN17QArrayDataPointerIDsE5derefEv.exit.i.i7, %14
  resume { ptr, i32 } %11
}